target datalayout = "e-m:e-p270:32:32-p271:32:32-p272:64:64-i64:64-i128:128-f80:128-n8:16:32:64-S128"
target triple = "x86_64-pc-linux-gnu"

%"class.std::__cxx11::basic_string" = type { %"struct.std::__cxx11::basic_string<char>::_Alloc_hider", i64, %union.anon }
%"struct.std::__cxx11::basic_string<char>::_Alloc_hider" = type { ptr }
%union.anon = type { i64, [8 x i8] }
%struct.PJCoordOperation = type <{ i32, [4 x i8], double, double, double, double, double, double, double, double, ptr, %"class.std::__cxx11::basic_string", double, double, %"class.std::__cxx11::basic_string", i8, i8, i8, i8, i8, i8, i8, i8, ptr, ptr, i32, [4 x i8] }>

; Function Attrs: mustprogress nounwind uwtable
define hidden void @_ZN16PJCoordOperationD2Ev(ptr noundef nonnull align 8 dereferenceable(188) %0) unnamed_addr #0 align 2 personality ptr @__gxx_personality_v0 {
  %2 = alloca ptr, align 8
  store ptr %0, ptr %2, align 8
  %3 = load ptr, ptr %2, align 8
  %4 = getelementptr inbounds %struct.PJCoordOperation, ptr %3, i32 0, i32 10
  %5 = load ptr, ptr %4, align 8
  %6 = invoke ptr @proj_destroy(ptr noundef %5)
          to label %7 unwind label %18

7:                                                ; preds = %1
  %8 = getelementptr inbounds %struct.PJCoordOperation, ptr %3, i32 0, i32 23
  %9 = load ptr, ptr %8, align 8
  %10 = invoke ptr @proj_destroy(ptr noundef %9)
          to label %11 unwind label %18

11:                                               ; preds = %7
  %12 = getelementptr inbounds %struct.PJCoordOperation, ptr %3, i32 0, i32 24
  %13 = load ptr, ptr %12, align 8
  %14 = invoke ptr @proj_destroy(ptr noundef %13)
          to label %15 unwind label %18

15:                                               ; preds = %11
  %16 = getelementptr inbounds %struct.PJCoordOperation, ptr %3, i32 0, i32 14
  call void @_ZNSt7__cxx1112basic_stringIcSt11char_traitsIcESaIcEED1Ev(ptr noundef nonnull align 8 dereferenceable(32) %16) #19
  %17 = getelementptr inbounds %struct.PJCoordOperation, ptr %3, i32 0, i32 11
  call void @_ZNSt7__cxx1112basic_stringIcSt11char_traitsIcESaIcEED1Ev(ptr noundef nonnull align 8 dereferenceable(32) %17) #19
  ret void

18:                                               ; preds = %11, %7, %1
  %19 = landingpad { ptr, i32 }
          catch ptr null
  %20 = extractvalue { ptr, i32 } %19, 0
  call void @__clang_call_terminate(ptr %20) #21
  unreachable
}