; Function Attrs: mustprogress nounwind uwtable
define hidden void @_ZN16PJCoordOperationD2Ev(ptr noundef nonnull align 8 dereferenceable(188) %0) unnamed_addr #5 align 2 personality ptr @__gxx_personality_v0 {
  %2 = getelementptr inbounds i8, ptr %0, i64 72
  %3 = load ptr, ptr %2, align 8
  %4 = invoke ptr @proj_destroy(ptr noundef %3)
          to label %5 unwind label %16

5:                                                ; preds = %1
  %6 = getelementptr inbounds i8, ptr %0, i64 168
  %7 = load ptr, ptr %6, align 8
  %8 = invoke ptr @proj_destroy(ptr noundef %7)
          to label %9 unwind label %16

9:                                                ; preds = %5
  %10 = getelementptr inbounds i8, ptr %0, i64 176
  %11 = load ptr, ptr %10, align 8
  %12 = invoke ptr @proj_destroy(ptr noundef %11)
          to label %13 unwind label %16

13:                                               ; preds = %9
  %14 = getelementptr inbounds i8, ptr %0, i64 128
  tail call void @_ZNSt7__cxx1112basic_stringIcSt11char_traitsIcESaIcEED1Ev(ptr noundef nonnull align 8 dereferenceable(32) %14) #33
  %15 = getelementptr inbounds i8, ptr %0, i64 80
  tail call void @_ZNSt7__cxx1112basic_stringIcSt11char_traitsIcESaIcEED1Ev(ptr noundef nonnull align 8 dereferenceable(32) %15) #33
  ret void

16:                                               ; preds = %9, %5, %1
  %17 = landingpad { ptr, i32 }
          catch ptr null
  %18 = extractvalue { ptr, i32 } %17, 0
  tail call void @__clang_call_terminate(ptr %18) #35
  unreachable
}